target datalayout = "e-m:e-p270:32:32-p271:32:32-p272:64:64-i64:64-i128:128-f80:128-n8:16:32:64-S128"
target triple = "x86_64-pc-linux-gnu"

%struct.IspellDict = type { i32, i32, ptr, ptr, ptr, ptr, ptr, i32, i32, i8, ptr, i8, i32, ptr, i32, i32, ptr, ptr, i32, i32, ptr, i64 }

; Function Attrs: nounwind uwtable
define dso_local void @NIFinishBuild(ptr noundef %0) #0 {
  %2 = alloca ptr, align 8
  store ptr %0, ptr %2, align 8
  %3 = load ptr, ptr %2, align 8
  %4 = getelementptr inbounds nuw %struct.IspellDict, ptr %3, i32 0, i32 16
  %5 = load ptr, ptr %4, align 8
  call void @MemoryContextDelete(ptr noundef %5)
  %6 = load ptr, ptr %2, align 8
  %7 = getelementptr inbounds nuw %struct.IspellDict, ptr %6, i32 0, i32 16
  store ptr null, ptr %7, align 8
  %8 = load ptr, ptr %2, align 8
  %9 = getelementptr inbounds nuw %struct.IspellDict, ptr %8, i32 0, i32 17
  store ptr null, ptr %9, align 8
  %10 = load ptr, ptr %2, align 8
  %11 = getelementptr inbounds nuw %struct.IspellDict, ptr %10, i32 0, i32 20
  store ptr null, ptr %11, align 8
  %12 = load ptr, ptr %2, align 8
  %13 = getelementptr inbounds nuw %struct.IspellDict, ptr %12, i32 0, i32 13
  store ptr null, ptr %13, align 8
  ret void
}