; Function Attrs: nounwind uwtable
define dso_local void @NIFinishBuild(ptr noundef captures(none) initializes((80, 88), (104, 112), (120, 128)) %0) local_unnamed_addr #0 {
  %2 = getelementptr inbounds nuw i8, ptr %0, i64 96
  %3 = load ptr, ptr %2, align 8
  tail call void @MemoryContextDelete(ptr noundef %3) #14
  %4 = getelementptr inbounds nuw i8, ptr %0, i64 120
  store ptr null, ptr %4, align 8
  %5 = getelementptr inbounds nuw i8, ptr %0, i64 80
  store ptr null, ptr %5, align 8
  tail call void @llvm.memset.p0.i64(ptr noundef nonnull align 8 dereferenceable(16) %2, i8 0, i64 16, i1 false)
  ret void
}